target datalayout = "e-m:e-p270:32:32-p271:32:32-p272:64:64-i64:64-i128:128-f80:128-n8:16:32:64-S128"
target triple = "x86_64-unknown-linux-gnu"

%"class.icu_75::UTF16CollationIterator" = type { %"class.icu_75::CollationIterator.base", ptr, ptr, ptr }
%"class.icu_75::CollationIterator.base" = type <{ %"class.icu_75::UObject", ptr, ptr, %"class.icu_75::CollationIterator::CEBuffer", i32, [4 x i8], ptr, i32, i8 }>
%"class.icu_75::UObject" = type { ptr }
%"class.icu_75::CollationIterator::CEBuffer" = type { i32, %"class.icu_75::MaybeStackArray.0" }
%"class.icu_75::MaybeStackArray.0" = type { ptr, i32, i8, [40 x i64] }

; Function Attrs: mustprogress uwtable
define noundef zeroext i1 @_ZNK6icu_7522UTF16CollationIteratoreqERKNS_17CollationIteratorE(ptr noundef nonnull align 8 dereferenceable(416) %this, ptr noundef nonnull align 8 dereferenceable(389) %other) unnamed_addr #1 align 2 {
entry:
  %retval = alloca i1, align 1
  %this.addr = alloca ptr, align 8
  %other.addr = alloca ptr, align 8
  %o = alloca ptr, align 8
  store ptr %this, ptr %this.addr, align 8
  store ptr %other, ptr %other.addr, align 8
  %this1 = load ptr, ptr %this.addr, align 8
  %0 = load ptr, ptr %other.addr, align 8
  %call = call noundef zeroext i1 @_ZNK6icu_7517CollationIteratoreqERKS0_(ptr noundef nonnull align 8 dereferenceable(389) %this1, ptr noundef nonnull align 8 dereferenceable(389) %0)
  br i1 %call, label %if.end, label %if.then

if.then:                                          ; preds = %entry
  store i1 false, ptr %retval, align 1
  br label %return

if.end:                                           ; preds = %entry
  %1 = load ptr, ptr %other.addr, align 8
  store ptr %1, ptr %o, align 8
  %pos = getelementptr inbounds %"class.icu_75::UTF16CollationIterator", ptr %this1, i32 0, i32 2
  %2 = load ptr, ptr %pos, align 8
  %start = getelementptr inbounds %"class.icu_75::UTF16CollationIterator", ptr %this1, i32 0, i32 1
  %3 = load ptr, ptr %start, align 8
  %sub.ptr.lhs.cast = ptrtoint ptr %2 to i64
  %sub.ptr.rhs.cast = ptrtoint ptr %3 to i64
  %sub.ptr.sub = sub i64 %sub.ptr.lhs.cast, %sub.ptr.rhs.cast
  %sub.ptr.div = sdiv exact i64 %sub.ptr.sub, 2
  %4 = load ptr, ptr %o, align 8
  %pos2 = getelementptr inbounds %"class.icu_75::UTF16CollationIterator", ptr %4, i32 0, i32 2
  %5 = load ptr, ptr %pos2, align 8
  %6 = load ptr, ptr %o, align 8
  %start3 = getelementptr inbounds %"class.icu_75::UTF16CollationIterator", ptr %6, i32 0, i32 1
  %7 = load ptr, ptr %start3, align 8
  %sub.ptr.lhs.cast4 = ptrtoint ptr %5 to i64
  %sub.ptr.rhs.cast5 = ptrtoint ptr %7 to i64
  %sub.ptr.sub6 = sub i64 %sub.ptr.lhs.cast4, %sub.ptr.rhs.cast5
  %sub.ptr.div7 = sdiv exact i64 %sub.ptr.sub6, 2
  %cmp = icmp eq i64 %sub.ptr.div, %sub.ptr.div7
  store i1 %cmp, ptr %retval, align 1
  br label %return

return:                                           ; preds = %if.end, %if.then
  %8 = load i1, ptr %retval, align 1
  ret i1 %8
}