; Function Attrs: mustprogress uwtable
define noundef zeroext i1 @_ZNK6icu_7522UTF16CollationIteratoreqERKNS_17CollationIteratorE(ptr noundef nonnull align 8 dereferenceable(416) %this, ptr noundef nonnull align 8 dereferenceable(389) %other) unnamed_addr #1 align 2 {
entry:
  %call = tail call noundef zeroext i1 @_ZNK6icu_7517CollationIteratoreqERKS0_(ptr noundef nonnull align 8 dereferenceable(389) %this, ptr noundef nonnull align 8 dereferenceable(389) %other)
  br i1 %call, label %if.end, label %return

if.end:                                           ; preds = %entry
  %pos = getelementptr inbounds i8, ptr %this, i64 400
  %0 = load ptr, ptr %pos, align 8
  %start = getelementptr inbounds i8, ptr %this, i64 392
  %1 = load ptr, ptr %start, align 8
  %sub.ptr.lhs.cast = ptrtoint ptr %0 to i64
  %sub.ptr.rhs.cast = ptrtoint ptr %1 to i64
  %sub.ptr.sub = sub i64 %sub.ptr.lhs.cast, %sub.ptr.rhs.cast
  %pos2 = getelementptr inbounds i8, ptr %other, i64 400
  %2 = load ptr, ptr %pos2, align 8
  %start3 = getelementptr inbounds i8, ptr %other, i64 392
  %3 = load ptr, ptr %start3, align 8
  %sub.ptr.lhs.cast4 = ptrtoint ptr %2 to i64
  %sub.ptr.rhs.cast5 = ptrtoint ptr %3 to i64
  %sub.ptr.sub6 = sub i64 %sub.ptr.lhs.cast4, %sub.ptr.rhs.cast5
  %cmp = icmp eq i64 %sub.ptr.sub, %sub.ptr.sub6
  br label %return

return:                                           ; preds = %entry, %if.end
  %retval.0 = phi i1 [ %cmp, %if.end ], [ false, %entry ]
  ret i1 %retval.0
}